target datalayout = "e-m:e-p270:32:32-p271:32:32-p272:64:64-i64:64-i128:128-f80:128-n8:16:32:64-S128"
target triple = "x86_64-pc-linux-gnu"

%struct.tMPI_Thread_key_t = type { %struct.tMPI_Atomic, ptr }
%struct.tMPI_Atomic = type { i32, [60 x i8] }
%struct.tmpi_thread = type { ptr, %struct.recv_envelope_list, ptr, %struct.free_envelope_list, %struct.tMPI_Atomic, %struct.tMPI_Event_t, %struct.req_list, ptr, ptr, ptr, ptr, i32, ptr }
%struct.recv_envelope_list = type { ptr, %struct.envelope }
%struct.envelope = type { i32, ptr, ptr, ptr, ptr, i64, ptr, i32, %struct.tMPI_Atomic, i32, ptr, ptr, i32, ptr, ptr, ptr, ptr }
%struct.free_envelope_list = type { ptr, ptr }
%struct.tMPI_Event_t = type { %struct.tMPI_Atomic, i32 }
%struct.req_list = type { ptr, ptr }
%struct.tmpi_req_ = type { i32, ptr, ptr, ptr, i32, i32, i64, i32, ptr, ptr }

@id_key = external global %struct.tMPI_Thread_key_t, align 8

; Function Attrs: mustprogress uwtable
define internal void @_ZL19tMPI_Test_multi_reqP11tmpi_threadiPP9tmpi_req_ii(ptr noundef %0, i32 noundef %1, ptr noundef %2, i32 noundef %3, i32 noundef %4) #0 {
  %6 = alloca ptr, align 8
  %7 = alloca i32, align 4
  %8 = alloca ptr, align 8
  %9 = alloca i32, align 4
  %10 = alloca i32, align 4
  %11 = alloca i32, align 4
  %12 = alloca ptr, align 8
  %13 = alloca ptr, align 8
  %14 = alloca ptr, align 8
  store ptr %0, ptr %6, align 8, !tbaa !17
  store i32 %1, ptr %7, align 4, !tbaa !11
  store ptr %2, ptr %8, align 8, !tbaa !3
  store i32 %3, ptr %9, align 4, !tbaa !11
  store i32 %4, ptr %10, align 4, !tbaa !11
  call void @llvm.lifetime.start.p0(i64 4, ptr %11) #4
  call void @llvm.lifetime.start.p0(i64 8, ptr %12) #4
  store ptr null, ptr %12, align 8, !tbaa !21
  call void @llvm.lifetime.start.p0(i64 8, ptr %13) #4
  store ptr null, ptr %13, align 8, !tbaa !21
  store i32 0, ptr %11, align 4, !tbaa !11
  br label %15

15:                                               ; preds = %53, %5
  %16 = load i32, ptr %11, align 4, !tbaa !11
  %17 = load i32, ptr %7, align 4, !tbaa !11
  %18 = icmp slt i32 %16, %17
  br i1 %18, label %19, label %56

19:                                               ; preds = %15
  call void @llvm.lifetime.start.p0(i64 8, ptr %14) #4
  %20 = load ptr, ptr %8, align 8, !tbaa !3
  %21 = load i32, ptr %11, align 4, !tbaa !11
  %22 = sext i32 %21 to i64
  %23 = getelementptr inbounds ptr, ptr %20, i64 %22
  %24 = load ptr, ptr %23, align 8, !tbaa !21
  store ptr %24, ptr %14, align 8, !tbaa !21
  %25 = load ptr, ptr %14, align 8, !tbaa !21
  %26 = icmp ne ptr %25, null
  br i1 %26, label %27, label %52

27:                                               ; preds = %19
  %28 = load ptr, ptr %12, align 8, !tbaa !21
  %29 = icmp ne ptr %28, null
  br i1 %29, label %32, label %30

30:                                               ; preds = %27
  %31 = load ptr, ptr %14, align 8, !tbaa !21
  store ptr %31, ptr %12, align 8, !tbaa !21
  br label %32

32:                                               ; preds = %30, %27
  %33 = load ptr, ptr %13, align 8, !tbaa !21
  %34 = icmp ne ptr %33, null
  br i1 %34, label %41, label %35

35:                                               ; preds = %32
  %36 = load ptr, ptr %14, align 8, !tbaa !21
  store ptr %36, ptr %13, align 8, !tbaa !21
  %37 = load ptr, ptr %13, align 8, !tbaa !21
  %38 = getelementptr inbounds nuw %struct.tmpi_req_, ptr %37, i32 0, i32 8
  store ptr null, ptr %38, align 8, !tbaa !23
  %39 = load ptr, ptr %13, align 8, !tbaa !21
  %40 = getelementptr inbounds nuw %struct.tmpi_req_, ptr %39, i32 0, i32 9
  store ptr null, ptr %40, align 8, !tbaa !28
  br label %51

41:                                               ; preds = %32
  %42 = load ptr, ptr %14, align 8, !tbaa !21
  %43 = getelementptr inbounds nuw %struct.tmpi_req_, ptr %42, i32 0, i32 8
  store ptr null, ptr %43, align 8, !tbaa !23
  %44 = load ptr, ptr %13, align 8, !tbaa !21
  %45 = load ptr, ptr %14, align 8, !tbaa !21
  %46 = getelementptr inbounds nuw %struct.tmpi_req_, ptr %45, i32 0, i32 9
  store ptr %44, ptr %46, align 8, !tbaa !28
  %47 = load ptr, ptr %14, align 8, !tbaa !21
  %48 = load ptr, ptr %13, align 8, !tbaa !21
  %49 = getelementptr inbounds nuw %struct.tmpi_req_, ptr %48, i32 0, i32 8
  store ptr %47, ptr %49, align 8, !tbaa !23
  %50 = load ptr, ptr %14, align 8, !tbaa !21
  store ptr %50, ptr %13, align 8, !tbaa !21
  br label %51

51:                                               ; preds = %41, %35
  br label %52

52:                                               ; preds = %51, %19
  call void @llvm.lifetime.end.p0(i64 8, ptr %14) #4
  br label %53

53:                                               ; preds = %52
  %54 = load i32, ptr %11, align 4, !tbaa !11
  %55 = add nsw i32 %54, 1
  store i32 %55, ptr %11, align 4, !tbaa !11
  br label %15, !llvm.loop !37

56:                                               ; preds = %15
  br label %57

57:                                               ; preds = %75, %56
  %58 = load ptr, ptr %6, align 8, !tbaa !17
  %59 = load ptr, ptr %12, align 8, !tbaa !21
  %60 = call noundef i32 @_Z15tMPI_Test_multiP11tmpi_threadP9tmpi_req_Pi(ptr noundef %58, ptr noundef %59, ptr noundef null)
  %61 = icmp ne i32 %60, 0
  br i1 %61, label %62, label %63

62:                                               ; preds = %57
  br label %77

63:                                               ; preds = %57
  %64 = load i32, ptr %9, align 4, !tbaa !11
  %65 = icmp ne i32 %64, 0
  br i1 %65, label %66, label %68

66:                                               ; preds = %63
  %67 = load ptr, ptr %6, align 8, !tbaa !17
  call void @_Z26tMPI_Wait_process_incomingP11tmpi_thread(ptr noundef %67)
  br label %68

68:                                               ; preds = %66, %63
  br label %69

69:                                               ; preds = %68
  %70 = load i32, ptr %10, align 4, !tbaa !11
  %71 = icmp ne i32 %70, 0
  br i1 %71, label %72, label %75

72:                                               ; preds = %69
  %73 = load i32, ptr %9, align 4, !tbaa !11
  %74 = icmp ne i32 %73, 0
  br label %75

75:                                               ; preds = %72, %69
  %76 = phi i1 [ false, %69 ], [ %74, %72 ]
  br i1 %76, label %57, label %77, !llvm.loop !38

77:                                               ; preds = %75, %62
  call void @llvm.lifetime.end.p0(i64 8, ptr %13) #4
  call void @llvm.lifetime.end.p0(i64 8, ptr %12) #4
  call void @llvm.lifetime.end.p0(i64 4, ptr %11) #4
  ret void
}

; Function Attrs: mustprogress uwtable
define noundef i32 @_Z12tMPI_TestanyiPP9tmpi_req_PiS2_P12tmpi_status_(i32 noundef %0, ptr noundef %1, ptr noundef %2, ptr noundef %3, ptr noundef %4) #0 {
  %6 = alloca i32, align 4
  %7 = alloca ptr, align 8
  %8 = alloca ptr, align 8
  %9 = alloca ptr, align 8
  %10 = alloca ptr, align 8
  %11 = alloca i32, align 4
  %12 = alloca i32, align 4
  %13 = alloca ptr, align 8
  %14 = alloca %struct.tMPI_Thread_key_t, align 8
  %15 = alloca ptr, align 8
  store i32 %0, ptr %6, align 4, !tbaa !11
  store ptr %1, ptr %7, align 8, !tbaa !3
  store ptr %2, ptr %8, align 8, !tbaa !33
  store ptr %3, ptr %9, align 8, !tbaa !33
  store ptr %4, ptr %10, align 8, !tbaa !9
  call void @llvm.lifetime.start.p0(i64 4, ptr %11) #4
  call void @llvm.lifetime.start.p0(i64 4, ptr %12) #4
  store i32 0, ptr %12, align 4, !tbaa !11
  call void @llvm.lifetime.start.p0(i64 8, ptr %13) #4
  call void @llvm.memcpy.p0.p0.i64(ptr align 8 %14, ptr align 8 @id_key, i64 72, i1 false), !tbaa.struct !13
  %16 = call noundef ptr @_Z23tMPI_Thread_getspecific17tMPI_Thread_key_t(ptr noundef byval(%struct.tMPI_Thread_key_t) align 8 %14)
  store ptr %16, ptr %13, align 8, !tbaa !17
  call void @llvm.lifetime.start.p0(i64 8, ptr %15) #4
  %17 = load ptr, ptr %13, align 8, !tbaa !17
  %18 = getelementptr inbounds nuw %struct.tmpi_thread, ptr %17, i32 0, i32 6
  store ptr %18, ptr %15, align 8, !tbaa !19
  %19 = load ptr, ptr %13, align 8, !tbaa !17
  %20 = load i32, ptr %6, align 4, !tbaa !11
  %21 = load ptr, ptr %7, align 8, !tbaa !3
  call void @_ZL19tMPI_Test_multi_reqP11tmpi_threadiPP9tmpi_req_ii(ptr noundef %19, i32 noundef %20, ptr noundef %21, i32 noundef 0, i32 noundef 0)
  %22 = load ptr, ptr %9, align 8, !tbaa !33
  %23 = icmp ne ptr %22, null
  br i1 %23, label %24, label %26

24:                                               ; preds = %5
  %25 = load ptr, ptr %9, align 8, !tbaa !33
  store i32 0, ptr %25, align 4, !tbaa !11
  br label %26

26:                                               ; preds = %24, %5
  %27 = load ptr, ptr %8, align 8, !tbaa !33
  %28 = icmp ne ptr %27, null
  br i1 %28, label %29, label %31

29:                                               ; preds = %26
  %30 = load ptr, ptr %8, align 8, !tbaa !33
  store i32 -1, ptr %30, align 4, !tbaa !11
  br label %31

31:                                               ; preds = %29, %26
  store i32 0, ptr %11, align 4, !tbaa !11
  br label %32

32:                                               ; preds = %91, %31
  %33 = load i32, ptr %11, align 4, !tbaa !11
  %34 = load i32, ptr %6, align 4, !tbaa !11
  %35 = icmp slt i32 %33, %34
  br i1 %35, label %36, label %94

36:                                               ; preds = %32
  %37 = load ptr, ptr %7, align 8, !tbaa !3
  %38 = load i32, ptr %11, align 4, !tbaa !11
  %39 = sext i32 %38 to i64
  %40 = getelementptr inbounds ptr, ptr %37, i64 %39
  %41 = load ptr, ptr %40, align 8, !tbaa !21
  %42 = icmp ne ptr %41, null
  br i1 %42, label %43, label %90

43:                                               ; preds = %36
  %44 = load ptr, ptr %7, align 8, !tbaa !3
  %45 = load i32, ptr %11, align 4, !tbaa !11
  %46 = sext i32 %45 to i64
  %47 = getelementptr inbounds ptr, ptr %44, i64 %46
  %48 = load ptr, ptr %47, align 8, !tbaa !21
  %49 = getelementptr inbounds nuw %struct.tmpi_req_, ptr %48, i32 0, i32 0
  %50 = load i32, ptr %49, align 8, !tbaa !35
  %51 = icmp ne i32 %50, 0
  br i1 %51, label %52, label %90

52:                                               ; preds = %43
  %53 = load ptr, ptr %7, align 8, !tbaa !3
  %54 = load i32, ptr %11, align 4, !tbaa !11
  %55 = sext i32 %54 to i64
  %56 = getelementptr inbounds ptr, ptr %53, i64 %55
  %57 = load ptr, ptr %56, align 8, !tbaa !21
  %58 = load ptr, ptr %10, align 8, !tbaa !9
  call void @_Z15tMPI_Set_statusP9tmpi_req_P12tmpi_status_(ptr noundef %57, ptr noundef %58)
  %59 = load ptr, ptr %8, align 8, !tbaa !33
  %60 = icmp ne ptr %59, null
  br i1 %60, label %61, label %64

61:                                               ; preds = %52
  %62 = load i32, ptr %11, align 4, !tbaa !11
  %63 = load ptr, ptr %8, align 8, !tbaa !33
  store i32 %62, ptr %63, align 4, !tbaa !11
  br label %64

64:                                               ; preds = %61, %52
  %65 = load ptr, ptr %9, align 8, !tbaa !33
  %66 = icmp ne ptr %65, null
  br i1 %66, label %67, label %69

67:                                               ; preds = %64
  %68 = load ptr, ptr %9, align 8, !tbaa !33
  store i32 1, ptr %68, align 4, !tbaa !11
  br label %69

69:                                               ; preds = %67, %64
  %70 = load ptr, ptr %7, align 8, !tbaa !3
  %71 = load i32, ptr %11, align 4, !tbaa !11
  %72 = sext i32 %71 to i64
  %73 = getelementptr inbounds ptr, ptr %70, i64 %72
  %74 = load ptr, ptr %73, align 8, !tbaa !21
  %75 = getelementptr inbounds nuw %struct.tmpi_req_, ptr %74, i32 0, i32 5
  %76 = load i32, ptr %75, align 4, !tbaa !32
  %77 = icmp ne i32 %76, 0
  br i1 %77, label %78, label %79

78:                                               ; preds = %69
  store i32 24, ptr %12, align 4, !tbaa !11
  br label %79

79:                                               ; preds = %78, %69
  %80 = load ptr, ptr %15, align 8, !tbaa !19
  %81 = load ptr, ptr %7, align 8, !tbaa !3
  %82 = load i32, ptr %11, align 4, !tbaa !11
  %83 = sext i32 %82 to i64
  %84 = getelementptr inbounds ptr, ptr %81, i64 %83
  %85 = load ptr, ptr %84, align 8, !tbaa !21
  call void @_Z15tMPI_Return_reqP8req_listP9tmpi_req_(ptr noundef %80, ptr noundef %85)
  %86 = load ptr, ptr %7, align 8, !tbaa !3
  %87 = load i32, ptr %11, align 4, !tbaa !11
  %88 = sext i32 %87 to i64
  %89 = getelementptr inbounds ptr, ptr %86, i64 %88
  store ptr null, ptr %89, align 8, !tbaa !21
  br label %94

90:                                               ; preds = %43, %36
  br label %91

91:                                               ; preds = %90
  %92 = load i32, ptr %11, align 4, !tbaa !11
  %93 = add nsw i32 %92, 1
  store i32 %93, ptr %11, align 4, !tbaa !11
  br label %32, !llvm.loop !41

94:                                               ; preds = %79, %32
  %95 = load i32, ptr %12, align 4, !tbaa !11
  call void @llvm.lifetime.end.p0(i64 8, ptr %15) #4
  call void @llvm.lifetime.end.p0(i64 8, ptr %13) #4
  call void @llvm.lifetime.end.p0(i64 4, ptr %12) #4
  call void @llvm.lifetime.end.p0(i64 4, ptr %11) #4
  ret i32 %95
}