; Function Attrs: mustprogress uwtable
define noundef range(i32 0, 25) i32 @_Z12tMPI_TestanyiPP9tmpi_req_PiS2_P12tmpi_status_(i32 noundef %0, ptr noundef captures(none) %1, ptr noundef writeonly %2, ptr noundef writeonly %3, ptr noundef %4) local_unnamed_addr #0 {
  %6 = tail call noundef ptr @_Z23tMPI_Thread_getspecific17tMPI_Thread_key_t(ptr noundef nonnull byval(%struct.tMPI_Thread_key_t) align 8 @id_key)
  %7 = getelementptr inbounds nuw i8, ptr %6, i64 360
  %8 = icmp sgt i32 %0, 0
  br i1 %8, label %.lr.ph.preheader.i, label %_ZL19tMPI_Test_multi_reqP11tmpi_threadiPP9tmpi_req_ii.exit

.lr.ph.preheader.i:                               ; preds = %5
  %wide.trip.count.i = zext nneg i32 %0 to i64
  br label %.lr.ph.i

.lr.ph.i:                                         ; preds = %17, %.lr.ph.preheader.i
  %indvars.iv.i = phi i64 [ 0, %.lr.ph.preheader.i ], [ %indvars.iv.next.i, %17 ]
  %.02333.i = phi ptr [ null, %.lr.ph.preheader.i ], [ %.1.i, %17 ]
  %.02432.i = phi ptr [ null, %.lr.ph.preheader.i ], [ %.125.i, %17 ]
  %9 = getelementptr inbounds nuw ptr, ptr %1, i64 %indvars.iv.i
  %10 = load ptr, ptr %9, align 8, !tbaa !3
  %.not27.i = icmp eq ptr %10, null
  br i1 %.not27.i, label %17, label %11

11:                                               ; preds = %.lr.ph.i
  %.not28.i = icmp eq ptr %.02432.i, null
  %spec.select.i = select i1 %.not28.i, ptr %10, ptr %.02432.i
  %.not29.i = icmp eq ptr %.02333.i, null
  %12 = getelementptr inbounds nuw i8, ptr %10, i64 56
  br i1 %.not29.i, label %13, label %14

13:                                               ; preds = %11
  tail call void @llvm.memset.p0.i64(ptr noundef nonnull align 8 dereferenceable(16) %12, i8 0, i64 16, i1 false)
  br label %17

14:                                               ; preds = %11
  store ptr null, ptr %12, align 8, !tbaa !8
  %15 = getelementptr inbounds nuw i8, ptr %10, i64 64
  store ptr %.02333.i, ptr %15, align 8, !tbaa !15
  %16 = getelementptr inbounds nuw i8, ptr %.02333.i, i64 56
  store ptr %10, ptr %16, align 8, !tbaa !8
  br label %17

17:                                               ; preds = %14, %13, %.lr.ph.i
  %.125.i = phi ptr [ %spec.select.i, %14 ], [ %spec.select.i, %13 ], [ %.02432.i, %.lr.ph.i ]
  %.1.i = phi ptr [ %10, %14 ], [ %10, %13 ], [ %.02333.i, %.lr.ph.i ]
  %indvars.iv.next.i = add nuw nsw i64 %indvars.iv.i, 1
  %exitcond.not.i = icmp eq i64 %indvars.iv.next.i, %wide.trip.count.i
  br i1 %exitcond.not.i, label %_ZL19tMPI_Test_multi_reqP11tmpi_threadiPP9tmpi_req_ii.exit, label %.lr.ph.i, !llvm.loop !22

_ZL19tMPI_Test_multi_reqP11tmpi_threadiPP9tmpi_req_ii.exit: ; preds = %17, %5
  %.024.lcssa.i = phi ptr [ null, %5 ], [ %.125.i, %17 ]
  %18 = tail call noundef i32 @_Z15tMPI_Test_multiP11tmpi_threadP9tmpi_req_Pi(ptr noundef %6, ptr noundef %.024.lcssa.i, ptr noundef null)
  %.not = icmp eq ptr %3, null
  br i1 %.not, label %20, label %19

19:                                               ; preds = %_ZL19tMPI_Test_multi_reqP11tmpi_threadiPP9tmpi_req_ii.exit
  store i32 0, ptr %3, align 4, !tbaa !20
  br label %20

20:                                               ; preds = %19, %_ZL19tMPI_Test_multi_reqP11tmpi_threadiPP9tmpi_req_ii.exit
  %.not36 = icmp eq ptr %2, null
  br i1 %.not36, label %22, label %21

21:                                               ; preds = %20
  store i32 -1, ptr %2, align 4, !tbaa !20
  br label %22

22:                                               ; preds = %21, %20
  br i1 %8, label %.lr.ph.preheader, label %.loopexit

.lr.ph.preheader:                                 ; preds = %22
  %wide.trip.count = zext nneg i32 %0 to i64
  br label %.lr.ph

.lr.ph:                                           ; preds = %.lr.ph.preheader, %37
  %indvars.iv = phi i64 [ 0, %.lr.ph.preheader ], [ %indvars.iv.next, %37 ]
  %23 = getelementptr inbounds nuw ptr, ptr %1, i64 %indvars.iv
  %24 = load ptr, ptr %23, align 8, !tbaa !3
  %.not37 = icmp eq ptr %24, null
  br i1 %.not37, label %37, label %25

25:                                               ; preds = %.lr.ph
  %26 = load i32, ptr %24, align 8, !tbaa !21
  %.not38 = icmp eq i32 %26, 0
  br i1 %.not38, label %37, label %27

27:                                               ; preds = %25
  %28 = getelementptr inbounds nuw ptr, ptr %1, i64 %indvars.iv
  tail call void @_Z15tMPI_Set_statusP9tmpi_req_P12tmpi_status_(ptr noundef nonnull %24, ptr noundef %4)
  br i1 %.not36, label %31, label %29

29:                                               ; preds = %27
  %30 = trunc nuw nsw i64 %indvars.iv to i32
  store i32 %30, ptr %2, align 4, !tbaa !20
  br label %31

31:                                               ; preds = %29, %27
  br i1 %.not, label %33, label %32

32:                                               ; preds = %31
  store i32 1, ptr %3, align 4, !tbaa !20
  br label %33

33:                                               ; preds = %32, %31
  %34 = load ptr, ptr %28, align 8, !tbaa !3
  %35 = getelementptr inbounds nuw i8, ptr %34, i64 36
  %36 = load i32, ptr %35, align 4, !tbaa !19
  %.not39 = icmp eq i32 %36, 0
  %spec.select = select i1 %.not39, i32 0, i32 24
  tail call void @_Z15tMPI_Return_reqP8req_listP9tmpi_req_(ptr noundef nonnull %7, ptr noundef %34)
  store ptr null, ptr %28, align 8, !tbaa !3
  br label %.loopexit

37:                                               ; preds = %.lr.ph, %25
  %indvars.iv.next = add nuw nsw i64 %indvars.iv, 1
  %exitcond.not = icmp eq i64 %indvars.iv.next, %wide.trip.count
  br i1 %exitcond.not, label %.loopexit, label %.lr.ph, !llvm.loop !26

.loopexit:                                        ; preds = %37, %22, %33
  %.030 = phi i32 [ %spec.select, %33 ], [ 0, %22 ], [ 0, %37 ]
  ret i32 %.030
}